target datalayout = "e-m:e-p270:32:32-p271:32:32-p272:64:64-i64:64-i128:128-f80:128-n8:16:32:64-S128"
target triple = "x86_64-pc-linux-gnu"

%struct.async_ctx_st = type { %struct.async_fibre_st, ptr, i32 }
%struct.async_fibre_st = type { %struct.ucontext_t, [1 x %struct.__jmp_buf_tag], i32 }
%struct.ucontext_t = type { i64, ptr, %struct.stack_t, %struct.mcontext_t, %struct.__sigset_t, %struct._libc_fpstate, [4 x i64] }
%struct.stack_t = type { ptr, i32, i64 }
%struct.mcontext_t = type { [23 x i64], ptr, [8 x i64] }
%struct.__sigset_t = type { [16 x i64] }
%struct._libc_fpstate = type { i16, i16, i16, i16, i64, i64, i32, i32, [8 x %struct._libc_fpxreg], [16 x %struct._libc_xmmreg], [24 x i32] }
%struct._libc_fpxreg = type { [4 x i16], i16, [3 x i16] }
%struct._libc_xmmreg = type { [4 x i32] }
%struct.__jmp_buf_tag = type { [8 x i64], i32, %struct.__sigset_t }
%struct.async_job_st = type { %struct.async_fibre_st, ptr, ptr, i32, i32, ptr, ptr }

@ctxkey = internal global i32 0, align 4
@.str = private unnamed_addr constant [32 x i8] c"../openssl/crypto/async/async.c\00", align 1
@__func__.async_start_func = private unnamed_addr constant [17 x i8] c"async_start_func\00", align 1

; Function Attrs: nounwind uwtable
define ptr @async_get_ctx() #0 {
  %1 = call ptr @CRYPTO_THREAD_get_local(ptr noundef @ctxkey)
  ret ptr %1
}

; Function Attrs: nounwind uwtable
define void @async_start_func() #0 {
  %1 = alloca ptr, align 8
  %2 = alloca ptr, align 8
  call void @llvm.lifetime.start.p0(i64 8, ptr %1) #8
  call void @llvm.lifetime.start.p0(i64 8, ptr %2) #8
  %3 = call ptr @async_get_ctx()
  store ptr %3, ptr %2, align 8, !tbaa !3
  %4 = load ptr, ptr %2, align 8, !tbaa !3
  %5 = icmp eq ptr %4, null
  br i1 %5, label %6, label %7

6:                                                ; preds = %0
  call void @ERR_new()
  call void @ERR_set_debug(ptr noundef @.str, i32 noundef 152, ptr noundef @__func__.async_start_func)
  call void (i32, i32, ptr, ...) @ERR_set_error(i32 noundef 51, i32 noundef 786691, ptr noundef null)
  call void @llvm.lifetime.end.p0(i64 8, ptr %2) #8
  call void @llvm.lifetime.end.p0(i64 8, ptr %1) #8
  ret void

7:                                                ; preds = %0
  br label %8

8:                                                ; preds = %31, %7
  br label %9

9:                                                ; preds = %8
  %10 = load ptr, ptr %2, align 8, !tbaa !3
  %11 = getelementptr inbounds nuw %struct.async_ctx_st, ptr %10, i32 0, i32 1
  %12 = load ptr, ptr %11, align 8, !tbaa !8
  store ptr %12, ptr %1, align 8, !tbaa !22
  %13 = load ptr, ptr %1, align 8, !tbaa !22
  %14 = getelementptr inbounds nuw %struct.async_job_st, ptr %13, i32 0, i32 1
  %15 = load ptr, ptr %14, align 8, !tbaa !23
  %16 = load ptr, ptr %1, align 8, !tbaa !22
  %17 = getelementptr inbounds nuw %struct.async_job_st, ptr %16, i32 0, i32 2
  %18 = load ptr, ptr %17, align 8, !tbaa !27
  %19 = call i32 %15(ptr noundef %18)
  %20 = load ptr, ptr %1, align 8, !tbaa !22
  %21 = getelementptr inbounds nuw %struct.async_job_st, ptr %20, i32 0, i32 3
  store i32 %19, ptr %21, align 8, !tbaa !28
  %22 = load ptr, ptr %1, align 8, !tbaa !22
  %23 = getelementptr inbounds nuw %struct.async_job_st, ptr %22, i32 0, i32 4
  store i32 3, ptr %23, align 4, !tbaa !29
  %24 = load ptr, ptr %1, align 8, !tbaa !22
  %25 = getelementptr inbounds nuw %struct.async_job_st, ptr %24, i32 0, i32 0
  %26 = load ptr, ptr %2, align 8, !tbaa !3
  %27 = getelementptr inbounds nuw %struct.async_ctx_st, ptr %26, i32 0, i32 0
  %28 = call i32 @async_fibre_swapcontext(ptr noundef %25, ptr noundef %27, i32 noundef 1)
  %29 = icmp ne i32 %28, 0
  br i1 %29, label %31, label %30

30:                                               ; preds = %9
  call void @ERR_new()
  call void @ERR_set_debug(ptr noundef @.str, i32 noundef 168, ptr noundef @__func__.async_start_func)
  call void (i32, i32, ptr, ...) @ERR_set_error(i32 noundef 51, i32 noundef 102, ptr noundef null)
  br label %31

31:                                               ; preds = %30, %9
  br label %8
}