; Function Attrs: nounwind uwtable
define void @async_start_func() local_unnamed_addr #0 {
  %1 = tail call ptr @CRYPTO_THREAD_get_local(ptr noundef nonnull @ctxkey) #8
  %2 = icmp eq ptr %1, null
  br i1 %2, label %4, label %.preheader

.preheader:                                       ; preds = %0
  %3 = getelementptr inbounds nuw i8, ptr %1, i64 1176
  br label %5

4:                                                ; preds = %0
  tail call void @ERR_new() #8
  tail call void @ERR_set_debug(ptr noundef nonnull @.str, i32 noundef 152, ptr noundef nonnull @__func__.async_start_func) #8
  tail call void (i32, i32, ptr, ...) @ERR_set_error(i32 noundef 51, i32 noundef 786691, ptr noundef null) #8
  ret void

5:                                                ; preds = %.preheader, %5
  %6 = load ptr, ptr %3, align 8, !tbaa !3
  %7 = getelementptr inbounds nuw i8, ptr %6, i64 1176
  %8 = load ptr, ptr %7, align 8, !tbaa !20
  %9 = getelementptr inbounds nuw i8, ptr %6, i64 1184
  %10 = load ptr, ptr %9, align 8, !tbaa !24
  %11 = tail call i32 %8(ptr noundef %10) #8
  %12 = getelementptr inbounds nuw i8, ptr %6, i64 1192
  store i32 %11, ptr %12, align 8, !tbaa !25
  %13 = getelementptr inbounds nuw i8, ptr %6, i64 1196
  store i32 3, ptr %13, align 4, !tbaa !26
  tail call fastcc void @async_fibre_swapcontext(ptr noundef %6, ptr noundef nonnull %1)
  br label %5
}